target datalayout = "e-m:e-p270:32:32-p271:32:32-p272:64:64-i64:64-i128:128-f80:128-n8:16:32:64-S128"
target triple = "x86_64-pc-linux-gnu"

%struct.zmq_pollitem_t = type { ptr, i32, i16, i16 }
%struct.zmq_poll_select_fds_t_ = type <{ %"class.zmq::optimized_fd_set_t", %"class.zmq::optimized_fd_set_t", %"class.zmq::optimized_fd_set_t", %"class.zmq::optimized_fd_set_t", %"class.zmq::optimized_fd_set_t", %"class.zmq::optimized_fd_set_t", i32, [4 x i8] }>
%"class.zmq::optimized_fd_set_t" = type { %struct.fd_set }
%struct.fd_set = type { [16 x i64] }

; Function Attrs: mustprogress uwtable
define internal noundef ptr @_ZL16as_socket_base_tPv(ptr noundef %0) #1 {
  %2 = alloca ptr, align 8
  %3 = alloca ptr, align 8
  %4 = alloca ptr, align 8
  %5 = alloca i32, align 4
  store ptr %0, ptr %3, align 8, !tbaa !12
  call void @llvm.lifetime.start.p0(i64 8, ptr %4) #20
  %6 = load ptr, ptr %3, align 8, !tbaa !12
  store ptr %6, ptr %4, align 8, !tbaa !17
  %7 = load ptr, ptr %3, align 8, !tbaa !12
  %8 = icmp ne ptr %7, null
  br i1 %8, label %9, label %12

9:                                                ; preds = %1
  %10 = load ptr, ptr %4, align 8, !tbaa !17
  %11 = call noundef zeroext i1 @_ZNK3zmq13socket_base_t9check_tagEv(ptr noundef nonnull align 8 dereferenceable(1825) %10)
  br i1 %11, label %14, label %12

12:                                               ; preds = %9, %1
  %13 = call ptr @__errno_location() #19
  store i32 88, ptr %13, align 4, !tbaa !8
  store ptr null, ptr %2, align 8
  store i32 1, ptr %5, align 4
  br label %16

14:                                               ; preds = %9
  %15 = load ptr, ptr %4, align 8, !tbaa !17
  store ptr %15, ptr %2, align 8
  store i32 1, ptr %5, align 4
  br label %16

16:                                               ; preds = %14, %12
  call void @llvm.lifetime.end.p0(i64 8, ptr %4) #20
  %17 = load ptr, ptr %2, align 8
  ret ptr %17
}

; Function Attrs: mustprogress nounwind uwtable
define linkonce_odr noundef ptr @_ZN3zmq18optimized_fd_set_t3getEv(ptr noundef nonnull align 8 dereferenceable(128) %0) #0 comdat align 2 {
  %2 = alloca ptr, align 8
  store ptr %0, ptr %2, align 8, !tbaa !90
  %3 = load ptr, ptr %2, align 8
  %4 = getelementptr inbounds nuw %"class.zmq::optimized_fd_set_t", ptr %3, i32 0, i32 0
  ret ptr %4
}

; Function Attrs: mustprogress uwtable
define i32 @zmq_getsockopt(ptr noundef %0, i32 noundef %1, ptr noundef %2, ptr noundef %3) #1 {
  %5 = alloca i32, align 4
  %6 = alloca ptr, align 8
  %7 = alloca i32, align 4
  %8 = alloca ptr, align 8
  %9 = alloca ptr, align 8
  %10 = alloca ptr, align 8
  %11 = alloca i32, align 4
  store ptr %0, ptr %6, align 8, !tbaa !12
  store i32 %1, ptr %7, align 4, !tbaa !8
  store ptr %2, ptr %8, align 8, !tbaa !12
  store ptr %3, ptr %9, align 8, !tbaa !15
  call void @llvm.lifetime.start.p0(i64 8, ptr %10) #20
  %12 = load ptr, ptr %6, align 8, !tbaa !12
  %13 = call noundef ptr @_ZL16as_socket_base_tPv(ptr noundef %12)
  store ptr %13, ptr %10, align 8, !tbaa !17
  %14 = load ptr, ptr %10, align 8, !tbaa !17
  %15 = icmp ne ptr %14, null
  br i1 %15, label %17, label %16

16:                                               ; preds = %4
  store i32 -1, ptr %5, align 4
  store i32 1, ptr %11, align 4
  br label %23

17:                                               ; preds = %4
  %18 = load ptr, ptr %10, align 8, !tbaa !17
  %19 = load i32, ptr %7, align 4, !tbaa !8
  %20 = load ptr, ptr %8, align 8, !tbaa !12
  %21 = load ptr, ptr %9, align 8, !tbaa !15
  %22 = call noundef i32 @_ZN3zmq13socket_base_t10getsockoptEiPvPm(ptr noundef nonnull align 8 dereferenceable(1825) %18, i32 noundef %19, ptr noundef %20, ptr noundef %21)
  store i32 %22, ptr %5, align 4
  store i32 1, ptr %11, align 4
  br label %23

23:                                               ; preds = %17, %16
  call void @llvm.lifetime.end.p0(i64 8, ptr %10) #20
  %24 = load i32, ptr %5, align 4
  ret i32 %24
}

; Function Attrs: mustprogress uwtable
define noundef i32 @_Z29zmq_poll_select_check_events_P14zmq_pollitem_tiR22zmq_poll_select_fds_t_Ri(ptr noundef %0, i32 noundef %1, ptr noundef nonnull align 8 dereferenceable(772) %2, ptr noundef nonnull align 4 dereferenceable(4) %3) #1 {
  %5 = alloca i32, align 4
  %6 = alloca ptr, align 8
  %7 = alloca i32, align 4
  %8 = alloca ptr, align 8
  %9 = alloca ptr, align 8
  %10 = alloca i32, align 4
  %11 = alloca i32, align 4
  %12 = alloca i64, align 8
  %13 = alloca i32, align 4
  store ptr %0, ptr %6, align 8, !tbaa !47
  store i32 %1, ptr %7, align 4, !tbaa !8
  store ptr %2, ptr %8, align 8, !tbaa !85
  store ptr %3, ptr %9, align 8, !tbaa !3
  call void @llvm.lifetime.start.p0(i64 4, ptr %10) #20
  store i32 0, ptr %10, align 4, !tbaa !8
  br label %14

14:                                               ; preds = %216, %4
  %15 = load i32, ptr %10, align 4, !tbaa !8
  %16 = load i32, ptr %7, align 4, !tbaa !8
  %17 = icmp ne i32 %15, %16
  br i1 %17, label %19, label %18

18:                                               ; preds = %14
  store i32 2, ptr %11, align 4
  br label %219

19:                                               ; preds = %14
  %20 = load ptr, ptr %6, align 8, !tbaa !47
  %21 = load i32, ptr %10, align 4, !tbaa !8
  %22 = sext i32 %21 to i64
  %23 = getelementptr inbounds %struct.zmq_pollitem_t, ptr %20, i64 %22
  %24 = getelementptr inbounds nuw %struct.zmq_pollitem_t, ptr %23, i32 0, i32 3
  store i16 0, ptr %24, align 2, !tbaa !59
  %25 = load ptr, ptr %6, align 8, !tbaa !47
  %26 = load i32, ptr %10, align 4, !tbaa !8
  %27 = sext i32 %26 to i64
  %28 = getelementptr inbounds %struct.zmq_pollitem_t, ptr %25, i64 %27
  %29 = getelementptr inbounds nuw %struct.zmq_pollitem_t, ptr %28, i32 0, i32 0
  %30 = load ptr, ptr %29, align 8, !tbaa !49
  %31 = icmp ne ptr %30, null
  br i1 %31, label %32, label %94

32:                                               ; preds = %19
  call void @llvm.lifetime.start.p0(i64 8, ptr %12) #20
  store i64 4, ptr %12, align 8, !tbaa !13
  call void @llvm.lifetime.start.p0(i64 4, ptr %13) #20
  %33 = load ptr, ptr %6, align 8, !tbaa !47
  %34 = load i32, ptr %10, align 4, !tbaa !8
  %35 = sext i32 %34 to i64
  %36 = getelementptr inbounds %struct.zmq_pollitem_t, ptr %33, i64 %35
  %37 = getelementptr inbounds nuw %struct.zmq_pollitem_t, ptr %36, i32 0, i32 0
  %38 = load ptr, ptr %37, align 8, !tbaa !49
  %39 = call i32 @zmq_getsockopt(ptr noundef %38, i32 noundef 15, ptr noundef %13, ptr noundef %12)
  %40 = icmp eq i32 %39, -1
  br i1 %40, label %41, label %42

41:                                               ; preds = %32
  store i32 -1, ptr %5, align 4
  store i32 1, ptr %11, align 4
  br label %91

42:                                               ; preds = %32
  %43 = load ptr, ptr %6, align 8, !tbaa !47
  %44 = load i32, ptr %10, align 4, !tbaa !8
  %45 = sext i32 %44 to i64
  %46 = getelementptr inbounds %struct.zmq_pollitem_t, ptr %43, i64 %45
  %47 = getelementptr inbounds nuw %struct.zmq_pollitem_t, ptr %46, i32 0, i32 2
  %48 = load i16, ptr %47, align 4, !tbaa !53
  %49 = sext i16 %48 to i32
  %50 = and i32 %49, 2
  %51 = icmp ne i32 %50, 0
  br i1 %51, label %52, label %66

52:                                               ; preds = %42
  %53 = load i32, ptr %13, align 4, !tbaa !8
  %54 = and i32 %53, 2
  %55 = icmp ne i32 %54, 0
  br i1 %55, label %56, label %66

56:                                               ; preds = %52
  %57 = load ptr, ptr %6, align 8, !tbaa !47
  %58 = load i32, ptr %10, align 4, !tbaa !8
  %59 = sext i32 %58 to i64
  %60 = getelementptr inbounds %struct.zmq_pollitem_t, ptr %57, i64 %59
  %61 = getelementptr inbounds nuw %struct.zmq_pollitem_t, ptr %60, i32 0, i32 3
  %62 = load i16, ptr %61, align 2, !tbaa !59
  %63 = sext i16 %62 to i32
  %64 = or i32 %63, 2
  %65 = trunc i32 %64 to i16
  store i16 %65, ptr %61, align 2, !tbaa !59
  br label %66

66:                                               ; preds = %56, %52, %42
  %67 = load ptr, ptr %6, align 8, !tbaa !47
  %68 = load i32, ptr %10, align 4, !tbaa !8
  %69 = sext i32 %68 to i64
  %70 = getelementptr inbounds %struct.zmq_pollitem_t, ptr %67, i64 %69
  %71 = getelementptr inbounds nuw %struct.zmq_pollitem_t, ptr %70, i32 0, i32 2
  %72 = load i16, ptr %71, align 4, !tbaa !53
  %73 = sext i16 %72 to i32
  %74 = and i32 %73, 1
  %75 = icmp ne i32 %74, 0
  br i1 %75, label %76, label %90

76:                                               ; preds = %66
  %77 = load i32, ptr %13, align 4, !tbaa !8
  %78 = and i32 %77, 1
  %79 = icmp ne i32 %78, 0
  br i1 %79, label %80, label %90

80:                                               ; preds = %76
  %81 = load ptr, ptr %6, align 8, !tbaa !47
  %82 = load i32, ptr %10, align 4, !tbaa !8
  %83 = sext i32 %82 to i64
  %84 = getelementptr inbounds %struct.zmq_pollitem_t, ptr %81, i64 %83
  %85 = getelementptr inbounds nuw %struct.zmq_pollitem_t, ptr %84, i32 0, i32 3
  %86 = load i16, ptr %85, align 2, !tbaa !59
  %87 = sext i16 %86 to i32
  %88 = or i32 %87, 1
  %89 = trunc i32 %88 to i16
  store i16 %89, ptr %85, align 2, !tbaa !59
  br label %90

90:                                               ; preds = %80, %76, %66
  store i32 0, ptr %11, align 4
  br label %91

91:                                               ; preds = %90, %41
  call void @llvm.lifetime.end.p0(i64 4, ptr %13) #20
  call void @llvm.lifetime.end.p0(i64 8, ptr %12) #20
  %92 = load i32, ptr %11, align 4
  switch i32 %92, label %219 [
    i32 0, label %93
  ]

93:                                               ; preds = %91
  br label %203

94:                                               ; preds = %19
  %95 = load ptr, ptr %8, align 8, !tbaa !85
  %96 = getelementptr inbounds nuw %struct.zmq_poll_select_fds_t_, ptr %95, i32 0, i32 3
  %97 = call noundef ptr @_ZN3zmq18optimized_fd_set_t3getEv(ptr noundef nonnull align 8 dereferenceable(128) %96)
  %98 = getelementptr inbounds nuw %struct.fd_set, ptr %97, i32 0, i32 0
  %99 = load ptr, ptr %6, align 8, !tbaa !47
  %100 = load i32, ptr %10, align 4, !tbaa !8
  %101 = sext i32 %100 to i64
  %102 = getelementptr inbounds %struct.zmq_pollitem_t, ptr %99, i64 %101
  %103 = getelementptr inbounds nuw %struct.zmq_pollitem_t, ptr %102, i32 0, i32 1
  %104 = load i32, ptr %103, align 8, !tbaa !56
  %105 = sdiv i32 %104, 64
  %106 = sext i32 %105 to i64
  %107 = getelementptr inbounds [16 x i64], ptr %98, i64 0, i64 %106
  %108 = load i64, ptr %107, align 8, !tbaa !13
  %109 = load ptr, ptr %6, align 8, !tbaa !47
  %110 = load i32, ptr %10, align 4, !tbaa !8
  %111 = sext i32 %110 to i64
  %112 = getelementptr inbounds %struct.zmq_pollitem_t, ptr %109, i64 %111
  %113 = getelementptr inbounds nuw %struct.zmq_pollitem_t, ptr %112, i32 0, i32 1
  %114 = load i32, ptr %113, align 8, !tbaa !56
  %115 = srem i32 %114, 64
  %116 = zext i32 %115 to i64
  %117 = shl i64 1, %116
  %118 = and i64 %108, %117
  %119 = icmp ne i64 %118, 0
  br i1 %119, label %120, label %130

120:                                              ; preds = %94
  %121 = load ptr, ptr %6, align 8, !tbaa !47
  %122 = load i32, ptr %10, align 4, !tbaa !8
  %123 = sext i32 %122 to i64
  %124 = getelementptr inbounds %struct.zmq_pollitem_t, ptr %121, i64 %123
  %125 = getelementptr inbounds nuw %struct.zmq_pollitem_t, ptr %124, i32 0, i32 3
  %126 = load i16, ptr %125, align 2, !tbaa !59
  %127 = sext i16 %126 to i32
  %128 = or i32 %127, 1
  %129 = trunc i32 %128 to i16
  store i16 %129, ptr %125, align 2, !tbaa !59
  br label %130

130:                                              ; preds = %120, %94
  %131 = load ptr, ptr %8, align 8, !tbaa !85
  %132 = getelementptr inbounds nuw %struct.zmq_poll_select_fds_t_, ptr %131, i32 0, i32 4
  %133 = call noundef ptr @_ZN3zmq18optimized_fd_set_t3getEv(ptr noundef nonnull align 8 dereferenceable(128) %132)
  %134 = getelementptr inbounds nuw %struct.fd_set, ptr %133, i32 0, i32 0
  %135 = load ptr, ptr %6, align 8, !tbaa !47
  %136 = load i32, ptr %10, align 4, !tbaa !8
  %137 = sext i32 %136 to i64
  %138 = getelementptr inbounds %struct.zmq_pollitem_t, ptr %135, i64 %137
  %139 = getelementptr inbounds nuw %struct.zmq_pollitem_t, ptr %138, i32 0, i32 1
  %140 = load i32, ptr %139, align 8, !tbaa !56
  %141 = sdiv i32 %140, 64
  %142 = sext i32 %141 to i64
  %143 = getelementptr inbounds [16 x i64], ptr %134, i64 0, i64 %142
  %144 = load i64, ptr %143, align 8, !tbaa !13
  %145 = load ptr, ptr %6, align 8, !tbaa !47
  %146 = load i32, ptr %10, align 4, !tbaa !8
  %147 = sext i32 %146 to i64
  %148 = getelementptr inbounds %struct.zmq_pollitem_t, ptr %145, i64 %147
  %149 = getelementptr inbounds nuw %struct.zmq_pollitem_t, ptr %148, i32 0, i32 1
  %150 = load i32, ptr %149, align 8, !tbaa !56
  %151 = srem i32 %150, 64
  %152 = zext i32 %151 to i64
  %153 = shl i64 1, %152
  %154 = and i64 %144, %153
  %155 = icmp ne i64 %154, 0
  br i1 %155, label %156, label %166

156:                                              ; preds = %130
  %157 = load ptr, ptr %6, align 8, !tbaa !47
  %158 = load i32, ptr %10, align 4, !tbaa !8
  %159 = sext i32 %158 to i64
  %160 = getelementptr inbounds %struct.zmq_pollitem_t, ptr %157, i64 %159
  %161 = getelementptr inbounds nuw %struct.zmq_pollitem_t, ptr %160, i32 0, i32 3
  %162 = load i16, ptr %161, align 2, !tbaa !59
  %163 = sext i16 %162 to i32
  %164 = or i32 %163, 2
  %165 = trunc i32 %164 to i16
  store i16 %165, ptr %161, align 2, !tbaa !59
  br label %166

166:                                              ; preds = %156, %130
  %167 = load ptr, ptr %8, align 8, !tbaa !85
  %168 = getelementptr inbounds nuw %struct.zmq_poll_select_fds_t_, ptr %167, i32 0, i32 5
  %169 = call noundef ptr @_ZN3zmq18optimized_fd_set_t3getEv(ptr noundef nonnull align 8 dereferenceable(128) %168)
  %170 = getelementptr inbounds nuw %struct.fd_set, ptr %169, i32 0, i32 0
  %171 = load ptr, ptr %6, align 8, !tbaa !47
  %172 = load i32, ptr %10, align 4, !tbaa !8
  %173 = sext i32 %172 to i64
  %174 = getelementptr inbounds %struct.zmq_pollitem_t, ptr %171, i64 %173
  %175 = getelementptr inbounds nuw %struct.zmq_pollitem_t, ptr %174, i32 0, i32 1
  %176 = load i32, ptr %175, align 8, !tbaa !56
  %177 = sdiv i32 %176, 64
  %178 = sext i32 %177 to i64
  %179 = getelementptr inbounds [16 x i64], ptr %170, i64 0, i64 %178
  %180 = load i64, ptr %179, align 8, !tbaa !13
  %181 = load ptr, ptr %6, align 8, !tbaa !47
  %182 = load i32, ptr %10, align 4, !tbaa !8
  %183 = sext i32 %182 to i64
  %184 = getelementptr inbounds %struct.zmq_pollitem_t, ptr %181, i64 %183
  %185 = getelementptr inbounds nuw %struct.zmq_pollitem_t, ptr %184, i32 0, i32 1
  %186 = load i32, ptr %185, align 8, !tbaa !56
  %187 = srem i32 %186, 64
  %188 = zext i32 %187 to i64
  %189 = shl i64 1, %188
  %190 = and i64 %180, %189
  %191 = icmp ne i64 %190, 0
  br i1 %191, label %192, label %202

192:                                              ; preds = %166
  %193 = load ptr, ptr %6, align 8, !tbaa !47
  %194 = load i32, ptr %10, align 4, !tbaa !8
  %195 = sext i32 %194 to i64
  %196 = getelementptr inbounds %struct.zmq_pollitem_t, ptr %193, i64 %195
  %197 = getelementptr inbounds nuw %struct.zmq_pollitem_t, ptr %196, i32 0, i32 3
  %198 = load i16, ptr %197, align 2, !tbaa !59
  %199 = sext i16 %198 to i32
  %200 = or i32 %199, 4
  %201 = trunc i32 %200 to i16
  store i16 %201, ptr %197, align 2, !tbaa !59
  br label %202

202:                                              ; preds = %192, %166
  br label %203

203:                                              ; preds = %202, %93
  %204 = load ptr, ptr %6, align 8, !tbaa !47
  %205 = load i32, ptr %10, align 4, !tbaa !8
  %206 = sext i32 %205 to i64
  %207 = getelementptr inbounds %struct.zmq_pollitem_t, ptr %204, i64 %206
  %208 = getelementptr inbounds nuw %struct.zmq_pollitem_t, ptr %207, i32 0, i32 3
  %209 = load i16, ptr %208, align 2, !tbaa !59
  %210 = icmp ne i16 %209, 0
  br i1 %210, label %211, label %215

211:                                              ; preds = %203
  %212 = load ptr, ptr %9, align 8, !tbaa !3
  %213 = load i32, ptr %212, align 4, !tbaa !8
  %214 = add nsw i32 %213, 1
  store i32 %214, ptr %212, align 4, !tbaa !8
  br label %215

215:                                              ; preds = %211, %203
  br label %216

216:                                              ; preds = %215
  %217 = load i32, ptr %10, align 4, !tbaa !8
  %218 = add nsw i32 %217, 1
  store i32 %218, ptr %10, align 4, !tbaa !8
  br label %14, !llvm.loop !102

219:                                              ; preds = %91, %18
  call void @llvm.lifetime.end.p0(i64 4, ptr %10) #20
  %220 = load i32, ptr %11, align 4
  switch i32 %220, label %224 [
    i32 2, label %221
    i32 1, label %222
  ]

221:                                              ; preds = %219
  store i32 0, ptr %5, align 4
  br label %222

222:                                              ; preds = %221, %219
  %223 = load i32, ptr %5, align 4
  ret i32 %223

224:                                              ; preds = %219
  unreachable
}