; Function Attrs: mustprogress uwtable
define noundef range(i32 -1, 1) i32 @_Z29zmq_poll_select_check_events_P14zmq_pollitem_tiR22zmq_poll_select_fds_t_Ri(ptr noundef captures(none) %0, i32 noundef %1, ptr noundef nonnull readonly align 8 captures(none) dereferenceable(772) %2, ptr noundef nonnull align 4 captures(none) dereferenceable(4) %3) local_unnamed_addr #1 {
  %5 = alloca i64, align 8
  %6 = alloca i32, align 4
  %.not63.not = icmp eq i32 %1, 0
  br i1 %.not63.not, label %.loopexit, label %.lr.ph

.lr.ph:                                           ; preds = %4
  %7 = getelementptr inbounds nuw i8, ptr %2, i64 384
  %8 = getelementptr inbounds nuw i8, ptr %2, i64 512
  %9 = getelementptr inbounds nuw i8, ptr %2, i64 640
  %10 = zext i32 %1 to i64
  br label %11

11:                                               ; preds = %.lr.ph, %66
  %indvars.iv = phi i64 [ 0, %.lr.ph ], [ %indvars.iv.next, %66 ]
  %12 = getelementptr inbounds nuw %struct.zmq_pollitem_t, ptr %0, i64 %indvars.iv
  %13 = getelementptr inbounds nuw i8, ptr %12, i64 14
  store i16 0, ptr %13, align 2, !tbaa !31
  %14 = load ptr, ptr %12, align 8, !tbaa !27
  %.not46 = icmp eq ptr %14, null
  br i1 %.not46, label %37, label %15

15:                                               ; preds = %11
  call void @llvm.lifetime.start.p0(i64 8, ptr nonnull %5) #22
  store i64 4, ptr %5, align 8, !tbaa !7
  call void @llvm.lifetime.start.p0(i64 4, ptr nonnull %6) #22
  %16 = call noundef zeroext i1 @_ZNK3zmq13socket_base_t9check_tagEv(ptr noundef nonnull align 8 dereferenceable(1825) %14)
  br i1 %16, label %zmq_getsockopt.exit, label %zmq_getsockopt.exit.thread

zmq_getsockopt.exit.thread:                       ; preds = %15
  %17 = tail call ptr @__errno_location() #20
  store i32 88, ptr %17, align 4, !tbaa !3
  br label %.critedge

zmq_getsockopt.exit:                              ; preds = %15
  %18 = call noundef i32 @_ZN3zmq13socket_base_t10getsockoptEiPvPm(ptr noundef nonnull align 8 dereferenceable(1825) %14, i32 noundef 15, ptr noundef nonnull %6, ptr noundef nonnull %5)
  %.not54 = icmp eq i32 %18, -1
  br i1 %.not54, label %.critedge, label %19

19:                                               ; preds = %zmq_getsockopt.exit
  %20 = getelementptr inbounds nuw i8, ptr %12, i64 12
  %21 = load i16, ptr %20, align 4, !tbaa !32
  %22 = and i16 %21, 2
  %.not50 = icmp eq i16 %22, 0
  br i1 %.not50, label %29, label %23

23:                                               ; preds = %19
  %24 = load i32, ptr %6, align 4, !tbaa !3
  %25 = and i32 %24, 2
  %.not51 = icmp eq i32 %25, 0
  br i1 %.not51, label %29, label %26

26:                                               ; preds = %23
  %27 = load i16, ptr %13, align 2, !tbaa !31
  %28 = or i16 %27, 2
  store i16 %28, ptr %13, align 2, !tbaa !31
  br label %29

29:                                               ; preds = %26, %23, %19
  %30 = and i16 %21, 1
  %.not52 = icmp eq i16 %30, 0
  br i1 %.not52, label %._crit_edge, label %31

._crit_edge:                                      ; preds = %29
  %.pr.pre.pre = load i16, ptr %13, align 2, !tbaa !31
  br label %36

31:                                               ; preds = %29
  %32 = load i32, ptr %6, align 4, !tbaa !3
  %33 = and i32 %32, 1
  %.not53 = icmp eq i32 %33, 0
  %.pr.pre.pre68 = load i16, ptr %13, align 2, !tbaa !31
  br i1 %.not53, label %36, label %34

34:                                               ; preds = %31
  %35 = or i16 %.pr.pre.pre68, 1
  store i16 %35, ptr %13, align 2, !tbaa !31
  br label %36

36:                                               ; preds = %._crit_edge, %31, %34
  %.pr.pre = phi i16 [ %.pr.pre.pre, %._crit_edge ], [ %.pr.pre.pre68, %31 ], [ %35, %34 ]
  call void @llvm.lifetime.end.p0(i64 4, ptr nonnull %6) #22
  call void @llvm.lifetime.end.p0(i64 8, ptr nonnull %5) #22
  br label %62

37:                                               ; preds = %11
  %38 = getelementptr inbounds nuw i8, ptr %12, i64 8
  %39 = load i32, ptr %38, align 8, !tbaa !34
  %40 = sdiv i32 %39, 64
  %41 = sext i32 %40 to i64
  %42 = getelementptr inbounds [16 x i64], ptr %7, i64 0, i64 %41
  %43 = load i64, ptr %42, align 8, !tbaa !7
  %44 = srem i32 %39, 64
  %45 = zext nneg i32 %44 to i64
  %46 = shl nuw i64 1, %45
  %47 = and i64 %46, %43
  %.not47 = icmp eq i64 %47, 0
  br i1 %.not47, label %49, label %48

48:                                               ; preds = %37
  store i16 1, ptr %13, align 2, !tbaa !31
  br label %49

49:                                               ; preds = %48, %37
  %50 = phi i16 [ 1, %48 ], [ 0, %37 ]
  %51 = getelementptr inbounds [16 x i64], ptr %8, i64 0, i64 %41
  %52 = load i64, ptr %51, align 8, !tbaa !7
  %53 = and i64 %52, %46
  %.not48 = icmp eq i64 %53, 0
  br i1 %.not48, label %56, label %54

54:                                               ; preds = %49
  %55 = or disjoint i16 %50, 2
  store i16 %55, ptr %13, align 2, !tbaa !31
  br label %56

56:                                               ; preds = %54, %49
  %57 = phi i16 [ %55, %54 ], [ %50, %49 ]
  %58 = getelementptr inbounds [16 x i64], ptr %9, i64 0, i64 %41
  %59 = load i64, ptr %58, align 8, !tbaa !7
  %60 = and i64 %59, %46
  %.not49 = icmp eq i64 %60, 0
  br i1 %.not49, label %62, label %.thread

.thread:                                          ; preds = %56
  %61 = or i16 %57, 4
  store i16 %61, ptr %13, align 2, !tbaa !31
  br label %63

62:                                               ; preds = %36, %56
  %.pr = phi i16 [ %.pr.pre, %36 ], [ %57, %56 ]
  %.not55 = icmp eq i16 %.pr, 0
  br i1 %.not55, label %66, label %63

63:                                               ; preds = %.thread, %62
  %64 = load i32, ptr %3, align 4, !tbaa !3
  %65 = add nsw i32 %64, 1
  store i32 %65, ptr %3, align 4, !tbaa !3
  br label %66

66:                                               ; preds = %62, %63
  %indvars.iv.next = add nuw nsw i64 %indvars.iv, 1
  %.not.not = icmp eq i64 %indvars.iv.next, %10
  br i1 %.not.not, label %.loopexit, label %11, !llvm.loop !66

.critedge:                                        ; preds = %zmq_getsockopt.exit, %zmq_getsockopt.exit.thread
  call void @llvm.lifetime.end.p0(i64 4, ptr nonnull %6) #22
  call void @llvm.lifetime.end.p0(i64 8, ptr nonnull %5) #22
  br label %.loopexit

.loopexit:                                        ; preds = %66, %4, %.critedge
  %.not61 = phi i32 [ -1, %.critedge ], [ 0, %4 ], [ 0, %66 ]
  ret i32 %.not61
}